target datalayout = "e-m:e-p270:32:32-p271:32:32-p272:64:64-i64:64-i128:128-f80:128-n8:16:32:64-S128"
target triple = "x86_64-pc-linux-gnu"

%class.Metadata = type { ptr }
%class.ConstantPool = type <{ %class.Metadata, ptr, ptr, ptr, ptr, ptr, i16, i16, i16, i16, i16, [2 x i8], i32, %union.anon.2, [4 x i8] }>
%union.anon.2 = type { i32 }

; Function Attrs: mustprogress nounwind uwtable
define linkonce_odr hidden noundef zeroext i1 @_ZNK12ConstantPool9is_sharedEv(ptr noundef nonnull align 8 dereferenceable(68) %0) #1 comdat align 2 {
  %2 = alloca ptr, align 8
  store ptr %0, ptr %2, align 8
  %3 = load ptr, ptr %2, align 8
  %4 = getelementptr inbounds %class.ConstantPool, ptr %3, i32 0, i32 10
  %5 = load i16, ptr %4, align 8
  %6 = zext i16 %5 to i32
  %7 = and i32 %6, 4
  %8 = icmp ne i32 %7, 0
  ret i1 %8
}

; Function Attrs: mustprogress nounwind uwtable
define hidden void @_ZN12ConstantPool12set_on_stackEb(ptr noundef nonnull align 8 dereferenceable(68) %0, i1 noundef zeroext %1) unnamed_addr #1 align 2 {
  %3 = alloca ptr, align 8
  %4 = alloca i8, align 1
  store ptr %0, ptr %3, align 8
  %5 = zext i1 %1 to i8
  store i8 %5, ptr %4, align 1
  %6 = load ptr, ptr %3, align 8
  %7 = load i8, ptr %4, align 1
  %8 = trunc i8 %7 to i1
  br i1 %8, label %9, label %21

9:                                                ; preds = %2
  %10 = load ptr, ptr %6, align 8
  %11 = getelementptr inbounds ptr, ptr %10, i64 12
  %12 = load ptr, ptr %11, align 8
  %13 = call noundef zeroext i1 %12(ptr noundef nonnull align 8 dereferenceable(68) %6)
  br i1 %13, label %20, label %14

14:                                               ; preds = %9
  %15 = getelementptr inbounds %class.ConstantPool, ptr %6, i32 0, i32 10
  %16 = load i16, ptr %15, align 8
  %17 = zext i16 %16 to i32
  %18 = or i32 %17, 2
  %19 = trunc i32 %18 to i16
  store i16 %19, ptr %15, align 8
  call void @_ZN19MetadataOnStackMark6recordEP8Metadata(ptr noundef %6)
  br label %20

20:                                               ; preds = %14, %9
  br label %30

21:                                               ; preds = %2
  %22 = call noundef zeroext i1 @_ZNK12ConstantPool9is_sharedEv(ptr noundef nonnull align 8 dereferenceable(68) %6)
  br i1 %22, label %29, label %23

23:                                               ; preds = %21
  %24 = getelementptr inbounds %class.ConstantPool, ptr %6, i32 0, i32 10
  %25 = load i16, ptr %24, align 8
  %26 = zext i16 %25 to i32
  %27 = and i32 %26, 65533
  %28 = trunc i32 %27 to i16
  store i16 %28, ptr %24, align 8
  br label %29

29:                                               ; preds = %23, %21
  br label %30

30:                                               ; preds = %29, %20
  ret void
}