; Function Attrs: mustprogress nounwind uwtable
define hidden void @_ZN12ConstantPool12set_on_stackEb(ptr noundef nonnull align 8 dereferenceable(68) %0, i1 noundef zeroext %1) unnamed_addr #0 align 2 {
  br i1 %1, label %3, label %12

3:                                                ; preds = %2
  %4 = load ptr, ptr %0, align 8
  %5 = getelementptr inbounds i8, ptr %4, i64 96
  %6 = load ptr, ptr %5, align 8
  %7 = tail call noundef zeroext i1 %6(ptr noundef nonnull align 8 dereferenceable(68) %0) #17
  br i1 %7, label %18, label %8

8:                                                ; preds = %3
  %9 = getelementptr inbounds i8, ptr %0, i64 56
  %10 = load i16, ptr %9, align 8
  %11 = or i16 %10, 2
  store i16 %11, ptr %9, align 8
  tail call void @_ZN19MetadataOnStackMark6recordEP8Metadata(ptr noundef nonnull %0) #17
  br label %18

12:                                               ; preds = %2
  %13 = getelementptr inbounds i8, ptr %0, i64 56
  %14 = load i16, ptr %13, align 8
  %15 = and i16 %14, 4
  %.not = icmp eq i16 %15, 0
  br i1 %.not, label %16, label %18

16:                                               ; preds = %12
  %17 = and i16 %14, -7
  store i16 %17, ptr %13, align 8
  br label %18

18:                                               ; preds = %12, %16, %3, %8
  ret void
}